(dp1
S'data'
p2
(lp3
(V\u676d\u5dde
(lp4
V120.15515
p5
aV30.27415
p6
atp7
a(V\u5b81\u6ce2
(lp8
V121.55027
p9
aV29.87386
p10
atp11
a(V\u6e29\u5dde
(lp12
V120.69939
p13
aV27.99492
p14
atp15
a(V\u7ecd\u5174
(lp16
V120.5802
p17
aV30.03033
p18
atp19
a(V\u6e56\u5dde
(lp20
V120.08805
p21
aV30.89305
p22
atp23
a(V\u5609\u5174
(lp24
V120.7555
p25
aV30.74501
p26
atp27
a(V\u91d1\u534e
(lp28
V119.64759
p29
aV29.07812
p30
atp31
a(V\u8862\u5dde
(lp32
V118.87419
p33
aV28.93592
p34
atp35
a(V\u821f\u5c71
(lp36
V122.20778
p37
aV29.98539
p38
atp39
a(V\u53f0\u5dde
(lp40
V121.42056
p41
aV28.65611
p42
atp43
a(V\u4e3d\u6c34
(lp44
V119.92293
p45
aV28.4672
p46
atp47
a(V\u5357\u4eac
(lp48
V118.79647
p49
aV32.05838
p50
atp51
a(V\u65e0\u9521
(lp52
V120.31237
p53
aV31.49099
p54
atp55
a(V\u5f90\u5dde
(lp56
V117.28577
p57
aV34.2044
p58
atp59
a(V\u5e38\u5dde
(lp60
V119.97365
p61
aV31.81072
p62
atp63
a(V\u82cf\u5dde
(lp64
V120.58319
p65
aV31.29834
p66
atp67
a(V\u5357\u901a
(lp68
V120.89371
p69
aV31.97958
p70
atp71
a(V\u8fde\u4e91\u6e2f
(lp72
V119.22295
p73
aV34.59669
p74
atp75
a(V\u6dee\u5b89
(lp76
V119.01595
p77
aV33.61016
p78
atp79
a(V\u76d0\u57ce
(lp80
V120.16164
p81
aV33.34951
p82
atp83
a(V\u626c\u5dde
(lp84
V119.41269
p85
aV32.39358
p86
atp87
a(V\u9547\u6c5f
(lp88
V119.425
p89
aV32.18959
p90
atp91
a(V\u6cf0\u5dde
(lp92
V119.92554
p93
aV32.45546
p94
atp95
a(V\u5bbf\u8fc1
(lp96
V118.27549
p97
aV33.96193
p98
atp99
a(V\u4e0a\u6d77
(lp100
V121.47375
p101
aV31.23026
p102
atp103
asS'name'
p104
S'jiangzhehu'
p105
sS'area'
p106
V\u6c5f\u6d59\u6caa
p107
s.