(dp1
S'data'
p2
(lp3
(V\u5317\u4eac
(lp4
V116.40717
p5
aV39.90469
p6
atp7
a(V\u5929\u6d25
(lp8
V117.19937
p9
aV39.0851
p10
atp11
a(V\u77f3\u5bb6\u5e84
(lp12
V114.5143
p13
aV38.04276
p14
atp15
a(V\u547c\u548c\u6d69\u7279
(lp16
V111.75199
p17
aV40.84149
p18
atp19
a(V\u592a\u539f
(lp20
V112.55067
p21
aV37.87059
p22
atp23
a(V\u6c88\u9633
(lp24
V123.43236
p25
aV41.80563
p26
atp27
a(V\u5927\u8fde
(lp28
V121.61476
p29
aV38.91369
p30
atp31
a(V\u957f\u6625
(lp32
V125.32357
p33
aV43.81602
p34
atp35
a(V\u54c8\u5c14\u6ee8
(lp36
V126.5358
p37
aV45.80216
p38
atp39
a(V\u4e0a\u6d77
(lp40
V121.47375
p41
aV31.23026
p42
atp43
a(V\u5357\u4eac
(lp44
V118.79647
p45
aV32.05838
p46
atp47
a(V\u676d\u5dde
(lp48
V120.15515
p49
aV30.27415
p50
atp51
a(V\u5b81\u6ce2
(lp52
V121.55027
p53
aV29.87386
p54
atp55
a(V\u5408\u80a5
(lp56
V117.22901
p57
aV31.82057
p58
atp59
a(V\u798f\u5dde
(lp60
V119.29647
p61
aV26.07421
p62
atp63
a(V\u53a6\u95e8
(lp64
V118.08948
p65
aV24.47951
p66
atp67
a(V\u5357\u660c
(lp68
V115.85794
p69
aV28.68202
p70
atp71
a(V\u6d4e\u5357
(lp72
V116.99493
p73
aV36.66529
p74
atp75
a(V\u9752\u5c9b
(lp76
V120.38299
p77
aV36.06623
p78
atp79
a(V\u90d1\u5dde
(lp80
V113.62493
p81
aV34.74725
p82
atp83
a(V\u6b66\u6c49
(lp84
V114.30525
p85
aV30.59276
p86
atp87
a(V\u957f\u6c99
(lp88
V112.93886
p89
aV28.22778
p90
atp91
a(V\u5e7f\u5dde
(lp92
V113.26388
p93
aV23.12946
p94
atp95
a(V\u6df1\u5733
(lp96
V114.05956
p97
aV22.54286
p98
atp99
a(V\u5357\u5b81
(lp100
V108.3669
p101
aV22.81673
p102
atp103
a(V\u6d77\u53e3
(lp104
V110.19989
p105
aV20.04422
p106
atp107
a(V\u5510\u5c71
(lp108
V118.18058
p109
aV39.63048
p110
atp111
a(V\u79e6\u7687\u5c9b
(lp112
V119.59964
p113
aV39.93545
p114
atp115
a(V\u5305\u5934
(lp116
V109.84026
p117
aV40.65737
p118
atp119
a(V\u4e39\u4e1c
(lp120
V124.35601
p121
aV39.9998
p122
atp123
a(V\u9526\u5dde
(lp124
V121.12703
p125
aV41.09515
p126
atp127
a(V\u5409\u6797
(lp128
V125.3268
p129
aV43.89616
p130
atp131
a(V\u7261\u4e39\u6c5f
(lp132
V129.63244
p133
aV44.55269
p134
atp135
a(V\u65e0\u9521
(lp136
V120.31237
p137
aV31.49099
p138
atp139
a(V\u626c\u5dde
(lp140
V119.41269
p141
aV32.39358
p142
atp143
a(V\u5f90\u5dde
(lp144
V117.28577
p145
aV34.2044
p146
atp147
a(V\u6e29\u5dde
(lp148
V120.69939
p149
aV27.99492
p150
atp151
a(V\u91d1\u534e
(lp152
V119.64759
p153
aV29.07812
p154
atp155
a(V\u868c\u57e0
(lp156
V117.38932
p157
aV32.91548
p158
atp159
a(V\u5b89\u5e86
(lp160
V117.06354
p161
aV30.54294
p162
atp163
a(V\u6cc9\u5dde
(lp164
V118.67587
p165
aV24.87389
p166
atp167
a(V\u4e5d\u6c5f
(lp168
V116.00146
p169
aV29.70548
p170
atp171
a(V\u8d63\u5dde
(lp172
V114.93476
p173
aV25.83109
p174
atp175
a(V\u70df\u53f0
(lp176
V121.44801
p177
aV37.46353
p178
atp179
a(V\u6d4e\u5b81
(lp180
V116.58724
p181
aV35.41459
p182
atp183
a(V\u6d1b\u9633
(lp184
V112.45361
p185
aV34.61812
p186
atp187
a(V\u5e73\u9876\u5c71
(lp188
V113.19241
p189
aV33.76609
p190
atp191
a(V\u5b9c\u660c
(lp192
V111.28642
p193
aV30.69186
p194
atp195
a(V\u8944\u6a0a
(lp196
V112.12255
p197
aV32.009
p198
atp199
a(V\u5cb3\u9633
(lp200
V113.12919
p201
aV29.35728
p202
atp203
a(V\u5e38\u5fb7
(lp204
V111.69854
p205
aV29.03158
p206
atp207
a(V\u60e0\u5dde
(lp208
V114.41679
p209
aV23.11075
p210
atp211
a(V\u6e5b\u6c5f
(lp212
V110.35894
p213
aV21.27134
p214
atp215
a(V\u97f6\u5173
(lp216
V113.59723
p217
aV24.81039
p218
atp219
a(V\u6842\u6797
(lp220
V110.29002
p221
aV25.27361
p222
atp223
a(V\u5317\u6d77
(lp224
V109.12008
p225
aV21.48112
p226
atp227
a(V\u4e09\u4e9a
(lp228
V109.51209
p229
aV18.25248
p230
atp231
asS'name'
p232
S'quanguo'
p233
sS'area'
p234
V\u5168\u56fd
p235
s.