(dp1
V\u65e0\u9521
p2
(lp3
F637.25999999999999
aF5758
asV\u6dee\u5b89
p4
(lp5
F479.99000000000001
aF1345.0699999999999
asV\u53f0\u5dde
p6
(lp7
F596.88
aF2415.1199999999999
asV\u626c\u5dde
p8
(lp9
F445.98000000000002
aF2207.9899999999998
asV\u5b81\u6ce2
p10
(lp11
F760.57000000000005
aF5125.8199999999997
asV\u5609\u5174
p12
(lp13
F450.17000000000002
aF2296
asV\u4e0a\u6d77
p14
(lp15
F2301.9099999999999
aF16872.419999999998
asV\u76d0\u57ce
p16
(lp17
F726.01999999999998
aF2266.2600000000002
asV\u5bbf\u8fc1
p18
(lp19
F471.56
aF1015.21
asV\u4e3d\u6c34
p20
(lp21
F211.69999999999999
aF644.03999999999996
asV\u9547\u6c5f
p22
(lp23
F311.33999999999997
aF1957
asV\u6cf0\u5dde
p24
(lp25
F461.86000000000001
aF2002.5799999999999
asV\u8fde\u4e91\u6e2f
p26
(lp27
F439.38999999999999
aF1150.8099999999999
asV\u7ecd\u5174
p28
(lp29
F491.22000000000003
aF2782.7399999999998
asV\u676d\u5dde
p30
(lp31
F870.03999999999996
aF5945.8199999999997
asV\u5357\u901a
p32
(lp33
F728.27999999999997
aF3417.8800000000001
asV\u6e56\u5dde
p34
(lp35
F289.35000000000002
aF1301.5599999999999
asV\u6e29\u5dde
p36
(lp37
F912.21000000000004
aF2925.5700000000002
asV\u5357\u4eac
p38
(lp39
F800.47000000000003
aF5010.3599999999997
asV\u5f90\u5dde
p40
(lp41
F858.04999999999995
aF2866.9299999999998
asV\u821f\u5c71
p42
(lp43
F112.13
aF633.45000000000005
asV\u82cf\u5dde
p44
(lp45
F1046.5999999999999
aF9000
asV\u5e38\u5dde
p46
(lp47
F459.19999999999999
aF2976.6999999999998
asV\u8862\u5dde
p48
(lp49
F212.27000000000001
aF752.77999999999997
asV\u91d1\u534e
p50
(lp51
F536.15999999999997
aF2094.6999999999998
as.