(dp1
V\u5357\u4eac
p2
(lp3
F800.47000000000003
aF5010.3599999999997
asV\u6cc9\u5dde
p4
(lp5
F812.85000000000002
aF3564.7600000000002
asV\u4e5d\u6c5f
p6
(lp7
F472.88
aF1032.0599999999999
asV\u6e5b\u6c5f
p8
(lp9
F699.33000000000004
aF1402.77
asV\u54c8\u5c14\u6ee8
p10
(lp11
F1063.5999999999999
aF3665.9000000000001
asV\u626c\u5dde
p12
(lp13
F445.98000000000002
aF2207.9899999999998
asV\u65e0\u9521
p14
(lp15
F637.25999999999999
aF5758
asV\u53a6\u95e8
p16
(lp17
F353.13
aF2053.7399999999998
asV\u8944\u6a0a
p18
(lp19
F550.02999999999997
aF1538.3
asV\u957f\u6625
p20
(lp21
F767.71000000000004
aF3369.6999999999998
asV\u9752\u5c9b
p22
(lp23
F871.50999999999999
aF5666.1899999999996
asV\u5929\u6d25
p24
(lp25
F1293.8199999999999
aF9108.8299999999999
asV\u5e38\u5fb7
p26
(lp27
F571.72000000000003
aF1491.5999999999999
asV\u6d1b\u9633
p28
(lp29
F654.95000000000005
aF2321.1999999999998
asV\u6df1\u5733
p30
(lp31
F1035.79
aF9510.9099999999999
asV\u5b81\u6ce2
p32
(lp33
F760.57000000000005
aF5125.8199999999997
asV\u868c\u57e0
p34
(lp35
F316.39999999999998
aF636.89999999999998
asV\u957f\u6c99
p36
(lp37
F704.40999999999997
aF4547.0600000000004
asV\u6c88\u9633
p38
(lp39
F810.62
aF5017
asV\u5317\u4eac
p40
(lp41
F1961.24
aF13777.9
asV\u9526\u5dde
p42
(lp43
F312.64999999999998
aF916
asV\u70df\u53f0
p44
(lp45
F696.82000000000005
aF4358.46
asV\u798f\u5dde
p46
(lp47
F711.53999999999996
aF3068.21
asV\u8d63\u5dde
p48
(lp49
F836.84000000000003
aF1119.47
asV\u5e73\u9876\u5c71
p50
(lp51
F490.44
aF1312.0999999999999
asV\u547c\u548c\u6d69\u7279
p52
(lp53
F286.66000000000003
aF1865.71
asV\u6d4e\u5357
p54
(lp55
F681.39999999999998
aF3910.8000000000002
asV\u5510\u5c71
p56
(lp57
F757.73000000000002
aF4469.0799999999999
asV\u6d77\u53e3
p58
(lp59
F204.62
aF590.54999999999995
asV\u5357\u5b81
p60
(lp61
F666.15999999999997
aF1800.4300000000001
asV\u79e6\u7687\u5c9b
p62
(lp63
F298.75999999999999
aF930.49000000000001
asV\u77f3\u5bb6\u5e84
p64
(lp65
F1016.38
aF3401
asV\u5357\u660c
p66
(lp67
F504.25999999999999
aF2207.1100000000001
asV\u5409\u6797
p68
(lp69
F441.47000000000003
aF1800.5999999999999
asV\u7261\u4e39\u6c5f
p70
(lp71
F279.87
aF781
asV\u6842\u6797
p72
(lp73
F474.80000000000001
aF1108.6300000000001
asV\u5305\u5934
p74
(lp75
F265.04000000000002
aF2460.8000000000002
asV\u5b9c\u660c
p76
(lp77
F405.97000000000003
aF1547.3199999999999
asV\u676d\u5dde
p78
(lp79
F870.03999999999996
aF5945.8199999999997
asV\u5b89\u5e86
p80
(lp81
F531.10000000000002
aF988.11000000000001
asV\u5e7f\u5dde
p82
(lp83
F1270.0799999999999
aF10604.48
asV\u4e09\u4e9a
p84
(lp85
F68.540000000000006
aF230.78999999999999
asV\u592a\u539f
p86
(lp87
F420.16000000000003
aF1778.05
asV\u6e29\u5dde
p88
(lp89
F912.21000000000004
aF2925.5700000000002
asV\u5cb3\u9633
p90
(lp91
F547.78999999999996
aF1539.3599999999999
asV\u5927\u8fde
p92
(lp93
F669.03999999999996
aF5158.1000000000004
asV\u4e0a\u6d77
p94
(lp95
F2301.9099999999999
aF16872.419999999998
asV\u5f90\u5dde
p96
(lp97
F858.04999999999995
aF2866.9299999999998
asV\u90d1\u5dde
p98
(lp99
F862.64999999999998
aF4000
asV\u5317\u6d77
p100
(lp101
F153.93000000000001
aF397.60000000000002
asV\u97f6\u5173
p102
(lp103
F282.66000000000003
aF683.10000000000002
asV\u4e39\u4e1c
p104
(lp105
F244.47
aF728.89999999999998
asV\u6d4e\u5b81
p106
(lp107
F808.19000000000005
aF2542.8000000000002
asV\u6b66\u6c49
p108
(lp109
F978.53999999999996
aF5515.7600000000002
asV\u5408\u80a5
p110
(lp111
F570.20000000000005
aF2702.5
asV\u60e0\u5dde
p112
(lp113
F459.69999999999999
aF1729.9000000000001
asV\u91d1\u534e
p114
(lp115
F536.15999999999997
aF2094.6999999999998
as.